target datalayout = "e-m:e-p270:32:32-p271:32:32-p272:64:64-i64:64-i128:128-f80:128-n8:16:32:64-S128"
target triple = "x86_64-unknown-linux-gnu"

%"class.cvc5::internal::NodeBuilder" = type <{ %"class.cvc5::internal::expr::NodeValue", [10 x ptr], ptr, ptr, i32, [4 x i8] }>
%"class.cvc5::internal::expr::NodeValue" = type { i64, i16, i32, [0 x ptr] }

; Function Attrs: mustprogress nounwind uwtable
define linkonce_odr hidden noundef i32 @_ZN4cvc58internal4expr9NodeValue11kindToDKindENS0_4kind6Kind_tE(i32 noundef %k) #5 comdat align 2 {
entry:
  %k.addr = alloca i32, align 4
  store i32 %k, ptr %k.addr, align 4
  %0 = load i32, ptr %k.addr, align 4
  %and = and i32 %0, 1023
  ret i32 %and
}

; Function Attrs: mustprogress nounwind uwtable
define linkonce_odr hidden void @_ZN4cvc58internal4expr9NodeValueC2Ev(ptr noundef nonnull align 8 dereferenceable(16) %this) unnamed_addr #5 comdat align 2 {
entry:
  %this.addr = alloca ptr, align 8
  store ptr %this, ptr %this.addr, align 8
  ret void
}

; Function Attrs: mustprogress uwtable
define hidden void @_ZN4cvc58internal11NodeBuilderC2ENS0_4kind6Kind_tE(ptr noundef nonnull align 8 dereferenceable(116) %this, i32 noundef %k) unnamed_addr #4 align 2 {
entry:
  %this.addr = alloca ptr, align 8
  %k.addr = alloca i32, align 4
  store ptr %this, ptr %this.addr, align 8
  store i32 %k, ptr %k.addr, align 4
  %this1 = load ptr, ptr %this.addr, align 8
  %d_inlineNv = getelementptr inbounds %"class.cvc5::internal::NodeBuilder", ptr %this1, i32 0, i32 0
  call void @_ZN4cvc58internal4expr9NodeValueC2Ev(ptr noundef nonnull align 8 dereferenceable(16) %d_inlineNv)
  %d_nv = getelementptr inbounds %"class.cvc5::internal::NodeBuilder", ptr %this1, i32 0, i32 2
  %d_inlineNv2 = getelementptr inbounds %"class.cvc5::internal::NodeBuilder", ptr %this1, i32 0, i32 0
  store ptr %d_inlineNv2, ptr %d_nv, align 8
  %d_nm = getelementptr inbounds %"class.cvc5::internal::NodeBuilder", ptr %this1, i32 0, i32 3
  %call = call noundef ptr @_ZN4cvc58internal11NodeManager9currentNMEv()
  store ptr %call, ptr %d_nm, align 8
  %d_nvMaxChildren = getelementptr inbounds %"class.cvc5::internal::NodeBuilder", ptr %this1, i32 0, i32 4
  store i32 10, ptr %d_nvMaxChildren, align 8
  %d_inlineNv3 = getelementptr inbounds %"class.cvc5::internal::NodeBuilder", ptr %this1, i32 0, i32 0
  %bf.load = load i64, ptr %d_inlineNv3, align 8
  %bf.clear = and i64 %bf.load, -1099511627776
  %bf.set = or i64 %bf.clear, 1
  store i64 %bf.set, ptr %d_inlineNv3, align 8
  %d_inlineNv4 = getelementptr inbounds %"class.cvc5::internal::NodeBuilder", ptr %this1, i32 0, i32 0
  %bf.load5 = load i64, ptr %d_inlineNv4, align 8
  %bf.clear6 = and i64 %bf.load5, -1152920405095219201
  %bf.set7 = or i64 %bf.clear6, 0
  store i64 %bf.set7, ptr %d_inlineNv4, align 8
  %0 = load i32, ptr %k.addr, align 4
  %call8 = call noundef i32 @_ZN4cvc58internal4expr9NodeValue11kindToDKindENS0_4kind6Kind_tE(i32 noundef %0)
  %d_inlineNv9 = getelementptr inbounds %"class.cvc5::internal::NodeBuilder", ptr %this1, i32 0, i32 0
  %d_kind = getelementptr inbounds %"class.cvc5::internal::expr::NodeValue", ptr %d_inlineNv9, i32 0, i32 1
  %1 = trunc i32 %call8 to i16
  %bf.load10 = load i16, ptr %d_kind, align 8
  %bf.value = and i16 %1, 1023
  %bf.clear11 = and i16 %bf.load10, -1024
  %bf.set12 = or i16 %bf.clear11, %bf.value
  store i16 %bf.set12, ptr %d_kind, align 8
  %d_inlineNv13 = getelementptr inbounds %"class.cvc5::internal::NodeBuilder", ptr %this1, i32 0, i32 0
  %d_nchildren = getelementptr inbounds %"class.cvc5::internal::expr::NodeValue", ptr %d_inlineNv13, i32 0, i32 2
  %bf.load14 = load i32, ptr %d_nchildren, align 4
  %bf.clear15 = and i32 %bf.load14, -67108864
  %bf.set16 = or i32 %bf.clear15, 0
  store i32 %bf.set16, ptr %d_nchildren, align 4
  ret void
}